; Function Attrs: nounwind uwtable
define i32 @LzmaDecode(ptr noundef %0, ptr nocapture noundef %1, ptr noundef %2, ptr nocapture noundef %3, ptr nocapture noundef readonly %4, i32 noundef %5, i32 noundef %6, ptr nocapture noundef %7, ptr noundef %8) local_unnamed_addr #4 {
  %10 = alloca %struct.CLzmaDec, align 8
  %11 = load i64, ptr %3, align 8
  %12 = load i64, ptr %1, align 8
  store i64 0, ptr %1, align 8
  store i64 0, ptr %3, align 8
  %13 = icmp ult i64 %11, 5
  br i1 %13, label %LzmaDec_AllocateProbs.exit.thread, label %14

14:                                               ; preds = %9
  %15 = getelementptr inbounds i8, ptr %10, i64 24
  %16 = getelementptr inbounds i8, ptr %10, i64 16
  %17 = icmp ult i32 %5, 5
  br i1 %17, label %LzmaDec_AllocateProbs.exit.thread, label %18

18:                                               ; preds = %14
  %19 = getelementptr inbounds i8, ptr %4, i64 1
  %20 = load i32, ptr %19, align 1
  %spec.store.select.i.i = tail call i32 @llvm.umax.i32(i32 %20, i32 4096)
  %21 = load i8, ptr %4, align 1
  %22 = icmp ugt i8 %21, -32
  br i1 %22, label %LzmaDec_AllocateProbs.exit.thread, label %23

23:                                               ; preds = %18
  %24 = urem i8 %21, 9
  %25 = zext nneg i8 %24 to i32
  %26 = udiv i8 %21, 9
  %27 = urem i8 %26, 5
  %.zext19.i.i = zext nneg i8 %27 to i32
  %28 = add nuw nsw i32 %.zext19.i.i, %25
  %29 = shl nuw nsw i32 768, %28
  %30 = add nuw nsw i32 %29, 1846
  %31 = getelementptr inbounds i8, ptr %8, i64 8
  %32 = load ptr, ptr %31, align 8
  tail call void %32(ptr noundef %8, ptr noundef null) #7
  %33 = load ptr, ptr %8, align 8
  %34 = shl nuw nsw i32 %30, 1
  %35 = zext nneg i32 %34 to i64
  %36 = tail call ptr %33(ptr noundef nonnull %8, i64 noundef %35) #7
  store ptr %36, ptr %16, align 8
  %37 = getelementptr inbounds i8, ptr %10, i64 104
  store i32 %30, ptr %37, align 8
  %38 = icmp eq ptr %36, null
  br i1 %38, label %LzmaDec_AllocateProbs.exit.thread, label %39

39:                                               ; preds = %23
  %40 = udiv i8 %21, 45
  %.zext.i.i = zext nneg i8 %40 to i32
  store i32 %25, ptr %10, align 8
  %.sroa.3.0..sroa_idx.i = getelementptr inbounds i8, ptr %10, i64 4
  store i32 %.zext19.i.i, ptr %.sroa.3.0..sroa_idx.i, align 4
  %.sroa.5.0..sroa_idx.i = getelementptr inbounds i8, ptr %10, i64 8
  store i32 %.zext.i.i, ptr %.sroa.5.0..sroa_idx.i, align 8
  %.sroa.6.0..sroa_idx.i = getelementptr inbounds i8, ptr %10, i64 12
  store i32 %spec.store.select.i.i, ptr %.sroa.6.0..sroa_idx.i, align 4
  store ptr %0, ptr %15, align 8
  %41 = getelementptr inbounds i8, ptr %10, i64 56
  store i64 %12, ptr %41, align 8
  %42 = getelementptr inbounds i8, ptr %10, i64 48
  store i64 0, ptr %42, align 8
  %43 = getelementptr inbounds i8, ptr %10, i64 96
  store i32 1, ptr %43, align 8
  %44 = getelementptr inbounds i8, ptr %10, i64 92
  store i32 0, ptr %44, align 4
  %45 = getelementptr inbounds i8, ptr %10, i64 108
  store i32 0, ptr %45, align 4
  %46 = getelementptr inbounds i8, ptr %10, i64 64
  store i32 0, ptr %46, align 8
  %47 = getelementptr inbounds i8, ptr %10, i64 68
  store i32 0, ptr %47, align 4
  %48 = getelementptr inbounds i8, ptr %10, i64 100
  store i32 1, ptr %48, align 4
  store i64 %11, ptr %3, align 8
  %49 = call i32 @LzmaDec_DecodeToDic(ptr noundef nonnull %10, i64 noundef %12, ptr noundef %2, ptr noundef nonnull %3, i32 noundef %6, ptr noundef %7), !range !5
  %50 = icmp eq i32 %49, 0
  br i1 %50, label %51, label %54

51:                                               ; preds = %39
  %52 = load i32, ptr %7, align 4
  %53 = icmp eq i32 %52, 3
  %spec.select = select i1 %53, i32 6, i32 0
  br label %54

54:                                               ; preds = %51, %39
  %.024 = phi i32 [ 1, %39 ], [ %spec.select, %51 ]
  %55 = load i64, ptr %42, align 8
  store i64 %55, ptr %1, align 8
  %56 = load ptr, ptr %31, align 8
  %57 = load ptr, ptr %16, align 8
  call void %56(ptr noundef nonnull %8, ptr noundef %57) #7
  br label %LzmaDec_AllocateProbs.exit.thread

LzmaDec_AllocateProbs.exit.thread:                ; preds = %18, %14, %23, %9, %54
  %.0 = phi i32 [ %.024, %54 ], [ 6, %9 ], [ 4, %18 ], [ 4, %14 ], [ 2, %23 ]
  ret i32 %.0
}